; Function Attrs: nounwind uwtable
define ptr @l___private_Lean_Meta_WHNF_0__Lean_Meta_unfoldNestedDIte(ptr noundef %0, ptr noundef %1, ptr noundef %2, ptr noundef %3) local_unnamed_addr #1 {
  %5 = load ptr, ptr @l___private_Lean_Meta_WHNF_0__Lean_Meta_unfoldNestedDIte___closed__1, align 8, !tbaa !12
  %6 = tail call ptr @lean_find_expr(ptr noundef %5, ptr noundef %0) #5
  %7 = ptrtoint ptr %6 to i64
  %8 = and i64 %7, 1
  %.not.i25 = icmp eq i64 %8, 0
  br i1 %.not.i25, label %lean_obj_tag.exit.thread, label %lean_obj_tag.exit

lean_obj_tag.exit:                                ; preds = %4
  %9 = and i64 %7, 8589934590
  %10 = icmp eq i64 %9, 0
  br i1 %10, label %13, label %lean_dec.exit

lean_obj_tag.exit.thread:                         ; preds = %4
  %11 = getelementptr i8, ptr %6, i64 4
  %.val.i = load i32, ptr %11, align 4
  %12 = icmp ult i32 %.val.i, 16777216
  br i1 %12, label %13, label %.thread

13:                                               ; preds = %lean_obj_tag.exit.thread, %lean_obj_tag.exit
  %14 = ptrtoint ptr %2 to i64
  %15 = and i64 %14, 1
  %.not = icmp eq i64 %15, 0
  br i1 %.not, label %16, label %lean_dec.exit20

16:                                               ; preds = %13
  %17 = load i32, ptr %2, align 4, !tbaa !4
  %18 = icmp sgt i32 %17, 1
  br i1 %18, label %19, label %21, !prof !11

19:                                               ; preds = %16
  %20 = add nsw i32 %17, -1
  store i32 %20, ptr %2, align 4, !tbaa !4
  br label %lean_dec.exit20

21:                                               ; preds = %16
  %.not.i = icmp eq i32 %17, 0
  br i1 %.not.i, label %lean_dec.exit20, label %22

22:                                               ; preds = %21
  tail call void @lean_dec_ref_cold(ptr noundef nonnull %2) #5
  br label %lean_dec.exit20

lean_dec.exit20:                                  ; preds = %22, %21, %19, %13
  %23 = ptrtoint ptr %1 to i64
  %24 = and i64 %23, 1
  %.not27 = icmp eq i64 %24, 0
  br i1 %.not27, label %25, label %lean_dec.exit19

25:                                               ; preds = %lean_dec.exit20
  %26 = load i32, ptr %1, align 4, !tbaa !4
  %27 = icmp sgt i32 %26, 1
  br i1 %27, label %28, label %30, !prof !11

28:                                               ; preds = %25
  %29 = add nsw i32 %26, -1
  store i32 %29, ptr %1, align 4, !tbaa !4
  br label %lean_dec.exit19

30:                                               ; preds = %25
  %.not.i21 = icmp eq i32 %26, 0
  br i1 %.not.i21, label %lean_dec.exit19, label %31

31:                                               ; preds = %30
  tail call void @lean_dec_ref_cold(ptr noundef nonnull %1) #5
  br label %lean_dec.exit19

lean_dec.exit19:                                  ; preds = %31, %30, %28, %lean_dec.exit20
  tail call void @lean_inc_heartbeat() #5
  %32 = tail call noalias ptr @mi_malloc_small(i64 noundef 24) #5
  %33 = icmp eq ptr %32, null
  br i1 %33, label %34, label %lean_alloc_ctor.exit

34:                                               ; preds = %lean_dec.exit19
  tail call void @lean_internal_panic_out_of_memory() #4
  unreachable

lean_alloc_ctor.exit:                             ; preds = %lean_dec.exit19
  %35 = getelementptr inbounds nuw i8, ptr %32, i64 4
  store i32 1, ptr %32, align 4, !tbaa !4
  store i32 131096, ptr %35, align 4
  %36 = getelementptr inbounds nuw i8, ptr %32, i64 8
  store ptr %0, ptr %36, align 8, !tbaa !12
  %37 = getelementptr inbounds nuw i8, ptr %32, i64 16
  store ptr %3, ptr %37, align 8, !tbaa !12
  br label %47

.thread:                                          ; preds = %lean_obj_tag.exit.thread
  %38 = load i32, ptr %6, align 4, !tbaa !4
  %39 = icmp sgt i32 %38, 1
  br i1 %39, label %40, label %42, !prof !11

40:                                               ; preds = %.thread
  %41 = add nsw i32 %38, -1
  store i32 %41, ptr %6, align 4, !tbaa !4
  br label %lean_dec.exit

42:                                               ; preds = %.thread
  %.not.i23 = icmp eq i32 %38, 0
  br i1 %.not.i23, label %lean_dec.exit, label %43

43:                                               ; preds = %42
  tail call void @lean_dec_ref_cold(ptr noundef nonnull %6) #5
  br label %lean_dec.exit

lean_dec.exit:                                    ; preds = %lean_obj_tag.exit, %43, %42, %40
  %44 = load ptr, ptr @l___private_Lean_Meta_WHNF_0__Lean_Meta_unfoldNestedDIte___closed__2, align 8, !tbaa !12
  %45 = load ptr, ptr @l___private_Lean_Meta_WHNF_0__Lean_Meta_unfoldNestedDIte___closed__3, align 8, !tbaa !12
  %46 = tail call ptr @l_Lean_Core_transform___at_Lean_Core_betaReduce___spec__1(ptr noundef %0, ptr noundef %44, ptr noundef %45, ptr noundef %1, ptr noundef %2, ptr noundef %3) #5
  br label %47

47:                                               ; preds = %lean_dec.exit, %lean_alloc_ctor.exit
  %.0 = phi ptr [ %32, %lean_alloc_ctor.exit ], [ %46, %lean_dec.exit ]
  ret ptr %.0
}